target datalayout = "e-m:e-p270:32:32-p271:32:32-p272:64:64-i64:64-i128:128-f80:128-n8:16:32:64-S128"
target triple = "x86_64-pc-linux-gnu"

%struct._object = type { %union.anon, ptr }
%union.anon = type { i64 }
%struct.PyMutex = type { i8 }
%struct._xid_lookup_state = type { %struct._PyXIData_registry_t }
%struct._PyXIData_registry_t = type { i32, i32, %struct.PyMutex, ptr }
%struct.llist_node = type { ptr, ptr }
%struct.PyWideStringList = type { i64, ptr }
%struct._pending_calls = type { ptr, %struct.PyMutex, i32, i32, i32, [300 x %struct._pending_call], i32, i32 }
%struct._pending_call = type { ptr, ptr, i32 }
%struct._stoptheworld_state = type { %struct.PyMutex, i8, i8, i8, %struct.PyEvent, i64, ptr }
%struct.PyEvent = type { i8 }
%struct.PyGC_Head = type { i64, i64 }
%struct._is = type { %struct._ceval_state, ptr, i64, i64, i32, i64, i32, i32, i32, i64, %struct.pythreads, ptr, ptr, i64, %struct._gc_runtime_state, ptr, ptr, %struct._import_state, %struct._gil_runtime_state, %struct.codecs_state, %struct.PyConfig, i64, ptr, ptr, ptr, ptr, [8 x ptr], i8, i64, [255 x ptr], %struct._PyXI_state_t, ptr, ptr, ptr, %struct._warnings_runtime_state, %struct.atexit_state, %struct._stoptheworld_state, %struct._qsbr_shared, ptr, ptr, [8 x ptr], [8 x ptr], [8 x ptr], i8, i8, %struct._py_object_state, %struct._Py_unicode_state, %struct._Py_long_state, %struct._dtoa_state, %struct._py_func_state, %struct._py_code_state, %struct._Py_dict_state, %struct._Py_exc_state, %struct._Py_mem_interp_free_queue, %struct.ast_state, %struct.types_state, %struct.callable_cache, i8, ptr, i64, %struct._rare_events, ptr, %struct._Py_GlobalMonitors, i8, i8, i64, i64, [8 x [19 x ptr]], [8 x ptr], [8 x i64], %struct._Py_interp_cached_objects, %struct._Py_interp_static_objects, i64, %struct._PyThreadStateImpl }
%struct._ceval_state = type { i64, i32, ptr, i32, %struct._pending_calls }
%struct.pythreads = type { i64, ptr, ptr, ptr, i64, i64 }
%struct._gc_runtime_state = type { ptr, i32, i32, i32, %struct.gc_generation, [2 x %struct.gc_generation], %struct.gc_generation, [3 x %struct.gc_generation_stats], i32, ptr, ptr, i64, i64, i32, i32 }
%struct.gc_generation = type { %struct.PyGC_Head, i32, i32 }
%struct.gc_generation_stats = type { i64, i64, i64 }
%struct._import_state = type { ptr, ptr, ptr, i32, i32, i32, ptr, %struct._PyRecursiveMutex, %struct.anon.800 }
%struct._PyRecursiveMutex = type { %struct.PyMutex, i64, i64 }
%struct.anon.800 = type { i32, i64, i32 }
%struct._gil_runtime_state = type { i64, ptr, i32, i64, %union.pthread_cond_t, %union.pthread_mutex_t, %union.pthread_cond_t, %union.pthread_mutex_t }
%union.pthread_cond_t = type { %struct.__pthread_cond_s }
%struct.__pthread_cond_s = type { %union.__atomic_wide_counter, %union.__atomic_wide_counter, [2 x i32], [2 x i32], i32, i32, [2 x i32] }
%union.__atomic_wide_counter = type { i64 }
%union.pthread_mutex_t = type { %struct.__pthread_mutex_s }
%struct.__pthread_mutex_s = type { i32, i32, i32, i32, i32, i16, i16, %struct.__pthread_internal_list }
%struct.__pthread_internal_list = type { ptr, ptr }
%struct.codecs_state = type { ptr, ptr, ptr, i32 }
%struct.PyConfig = type { i32, i32, i32, i32, i32, i32, i64, i32, i32, i32, i32, i32, i32, i32, ptr, i32, ptr, ptr, ptr, i32, %struct.PyWideStringList, %struct.PyWideStringList, %struct.PyWideStringList, %struct.PyWideStringList, i32, i32, i32, i32, i32, i32, i32, i32, i32, i32, i32, i32, i32, ptr, ptr, ptr, i32, i32, i32, i32, i32, ptr, ptr, ptr, ptr, i32, %struct.PyWideStringList, ptr, ptr, ptr, ptr, ptr, ptr, ptr, i32, ptr, ptr, ptr, ptr, i32, i32, i32 }
%struct._PyXI_state_t = type { %struct._xid_lookup_state, %struct.xi_exceptions }
%struct.xi_exceptions = type { ptr, ptr, ptr }
%struct._warnings_runtime_state = type { ptr, ptr, ptr, %struct._PyRecursiveMutex, i64 }
%struct.atexit_state = type { ptr, ptr }
%struct._qsbr_shared = type { i64, i64, ptr, i64, %struct.PyMutex, ptr }
%struct._py_object_state = type { %struct._Py_freelists, i32 }
%struct._Py_freelists = type { %struct._Py_freelist, %struct._Py_freelist, [20 x %struct._Py_freelist], %struct._Py_freelist, %struct._Py_freelist, %struct._Py_freelist, %struct._Py_freelist, %struct._Py_freelist, %struct._Py_freelist, %struct._Py_freelist, %struct._Py_freelist, %struct._Py_freelist, %struct._Py_freelist, %struct._Py_freelist, %struct._Py_freelist, %struct._Py_freelist }
%struct._Py_freelist = type { ptr, i64 }
%struct._Py_unicode_state = type { %struct._Py_unicode_fs_codec, ptr, %struct._Py_unicode_ids }
%struct._Py_unicode_fs_codec = type { ptr, i32, ptr, i32 }
%struct._Py_unicode_ids = type { i64, ptr }
%struct._Py_long_state = type { i32 }
%struct._dtoa_state = type { [8 x ptr], [8 x ptr], [288 x double], ptr }
%struct._py_func_state = type { i32, [4096 x %struct._func_version_cache_item] }
%struct._func_version_cache_item = type { ptr, ptr }
%struct._py_code_state = type { %struct.PyMutex, ptr }
%struct._Py_dict_state = type { i32, [8 x ptr] }
%struct._Py_exc_state = type { ptr, ptr, i32, ptr }
%struct._Py_mem_interp_free_queue = type { i32, %struct.PyMutex, %struct.llist_node }
%struct.ast_state = type { %struct._PyOnceFlag, i32, ptr, ptr, ptr, ptr, ptr, ptr, ptr, ptr, ptr, ptr, ptr, ptr, ptr, ptr, ptr, ptr, ptr, ptr, ptr, ptr, ptr, ptr, ptr, ptr, ptr, ptr, ptr, ptr, ptr, ptr, ptr, ptr, ptr, ptr, ptr, ptr, ptr, ptr, ptr, ptr, ptr, ptr, ptr, ptr, ptr, ptr, ptr, ptr, ptr, ptr, ptr, ptr, ptr, ptr, ptr, ptr, ptr, ptr, ptr, ptr, ptr, ptr, ptr, ptr, ptr, ptr, ptr, ptr, ptr, ptr, ptr, ptr, ptr, ptr, ptr, ptr, ptr, ptr, ptr, ptr, ptr, ptr, ptr, ptr, ptr, ptr, ptr, ptr, ptr, ptr, ptr, ptr, ptr, ptr, ptr, ptr, ptr, ptr, ptr, ptr, ptr, ptr, ptr, ptr, ptr, ptr, ptr, ptr, ptr, ptr, ptr, ptr, ptr, ptr, ptr, ptr, ptr, ptr, ptr, ptr, ptr, ptr, ptr, ptr, ptr, ptr, ptr, ptr, ptr, ptr, ptr, ptr, ptr, ptr, ptr, ptr, ptr, ptr, ptr, ptr, ptr, ptr, ptr, ptr, ptr, ptr, ptr, ptr, ptr, ptr, ptr, ptr, ptr, ptr, ptr, ptr, ptr, ptr, ptr, ptr, ptr, ptr, ptr, ptr, ptr, ptr, ptr, ptr, ptr, ptr, ptr, ptr, ptr, ptr, ptr, ptr, ptr, ptr, ptr, ptr, ptr, ptr, ptr, ptr, ptr, ptr, ptr, ptr, ptr, ptr, ptr, ptr, ptr, ptr, ptr, ptr, ptr, ptr, ptr, ptr, ptr, ptr, ptr, ptr, ptr, ptr, ptr, ptr, ptr, ptr, ptr, ptr, ptr, ptr, ptr, ptr, ptr, ptr, ptr, ptr, ptr, ptr, ptr, ptr, ptr, ptr, ptr, ptr, ptr, ptr, ptr, ptr, ptr, ptr, ptr, ptr, ptr, ptr, ptr, ptr, ptr, ptr, ptr }
%struct._PyOnceFlag = type { i8 }
%struct.types_state = type { i32, %struct.type_cache, %struct.anon.802, %struct.anon.803, %struct.PyMutex, [4096 x ptr] }
%struct.type_cache = type { [4096 x %struct.type_cache_entry] }
%struct.type_cache_entry = type { i32, ptr, ptr }
%struct.anon.802 = type { i64, [200 x %struct.managed_static_type_state] }
%struct.managed_static_type_state = type { ptr, i32, i32, i32, ptr, ptr, ptr }
%struct.anon.803 = type { i64, i64, [10 x %struct.managed_static_type_state] }
%struct.callable_cache = type { ptr, ptr, ptr, ptr }
%struct._rare_events = type { i8, i8, i8, i8, i8 }
%struct._Py_GlobalMonitors = type { [16 x i8] }
%struct._Py_interp_cached_objects = type { ptr, ptr, ptr, [10 x ptr], ptr, ptr, ptr, ptr, ptr, ptr, ptr }
%struct._Py_interp_static_objects = type { %struct.anon.804 }
%struct.anon.804 = type { i32, %struct.PyGC_Head, %struct.PyHamtObject, %struct.PyBaseExceptionObject }
%struct.PyHamtObject = type { %struct._object, ptr, ptr, i64 }
%struct.PyBaseExceptionObject = type { %struct._object, ptr, ptr, ptr, ptr, ptr, ptr, i8 }
%struct._PyThreadStateImpl = type { %struct._ts, ptr, ptr, ptr, %struct.llist_node }
%struct._ts = type { ptr, ptr, ptr, i64, %struct.anon.805, i32, i32, i32, i32, i32, i32, i32, i32, ptr, ptr, ptr, ptr, ptr, ptr, ptr, ptr, i32, ptr, i64, i64, ptr, i64, i32, ptr, ptr, ptr, i64, i64, ptr, ptr, ptr, %struct._err_stackitem, ptr, i64, ptr, ptr }
%struct.anon.805 = type { i32 }
%struct._err_stackitem = type { ptr, ptr }

@constevaluator_spec = hidden global { ptr, i32, i32, i32, [4 x i8], ptr } { ptr @.str.1, i32 24, i32 0, i32 16768, [4 x i8] zeroinitializer, ptr @constevaluator_slots }, align 8
@typevar_spec = hidden global { ptr, i32, i32, i32, [4 x i8], ptr } { ptr @.str.6, i32 80, i32 0, i32 16664, [4 x i8] zeroinitializer, ptr @typevar_slots }, align 8
@paramspecargs_spec = hidden global { ptr, i32, i32, i32, [4 x i8], ptr } { ptr @.str.7, i32 24, i32 0, i32 16648, [4 x i8] zeroinitializer, ptr @paramspecargs_slots }, align 8
@paramspeckwargs_spec = hidden global { ptr, i32, i32, i32, [4 x i8], ptr } { ptr @.str.8, i32 24, i32 0, i32 16648, [4 x i8] zeroinitializer, ptr @paramspeckwargs_slots }, align 8
@paramspec_spec = hidden global { ptr, i32, i32, i32, [4 x i8], ptr } { ptr @.str.9, i32 56, i32 0, i32 16664, [4 x i8] zeroinitializer, ptr @paramspec_slots }, align 8
@typevartuple_spec = hidden global { ptr, i32, i32, i32, [4 x i8], ptr } { ptr @.str.10, i32 40, i32 0, i32 16664, [4 x i8] zeroinitializer, ptr @typevartuple_slots }, align 8
@generic_spec = hidden global { ptr, i32, i32, i32, [4 x i8], ptr } { ptr @.str.14, i32 16, i32 0, i32 17408, [4 x i8] zeroinitializer, ptr @generic_slots }, align 8

; Function Attrs: nounwind uwtable
define hidden i32 @_Py_initialize_generic(ptr noundef %0) #0 {
  %2 = alloca i32, align 4
  %3 = alloca ptr, align 8
  %4 = alloca ptr, align 8
  %5 = alloca i32, align 4
  %6 = alloca ptr, align 8
  %7 = alloca ptr, align 8
  %8 = alloca ptr, align 8
  %9 = alloca ptr, align 8
  %10 = alloca ptr, align 8
  %11 = alloca ptr, align 8
  store ptr %0, ptr %3, align 8, !tbaa !144
  br label %12

12:                                               ; preds = %1
  call void @llvm.lifetime.start.p0(i64 8, ptr %4) #6
  %13 = call ptr @PyType_FromSpec(ptr noundef @generic_spec)
  store ptr %13, ptr %4, align 8, !tbaa !9
  %14 = load ptr, ptr %4, align 8, !tbaa !9
  %15 = icmp eq ptr %14, null
  br i1 %15, label %16, label %17

16:                                               ; preds = %12
  store i32 -1, ptr %2, align 4
  store i32 1, ptr %5, align 4
  br label %22

17:                                               ; preds = %12
  %18 = load ptr, ptr %4, align 8, !tbaa !9
  %19 = load ptr, ptr %3, align 8, !tbaa !144
  %20 = getelementptr inbounds nuw %struct._is, ptr %19, i32 0, i32 70
  %21 = getelementptr inbounds nuw %struct._Py_interp_cached_objects, ptr %20, i32 0, i32 4
  store ptr %18, ptr %21, align 8, !tbaa !145
  store i32 0, ptr %5, align 4
  br label %22

22:                                               ; preds = %17, %16
  call void @llvm.lifetime.end.p0(i64 8, ptr %4) #6
  %23 = load i32, ptr %5, align 4
  switch i32 %23, label %112 [
    i32 0, label %24
    i32 1, label %110
  ]

24:                                               ; preds = %22
  br label %25

25:                                               ; preds = %24
  br label %26

26:                                               ; preds = %25
  call void @llvm.lifetime.start.p0(i64 8, ptr %6) #6
  %27 = call ptr @PyType_FromSpec(ptr noundef @typevar_spec)
  store ptr %27, ptr %6, align 8, !tbaa !9
  %28 = load ptr, ptr %6, align 8, !tbaa !9
  %29 = icmp eq ptr %28, null
  br i1 %29, label %30, label %31

30:                                               ; preds = %26
  store i32 -1, ptr %2, align 4
  store i32 1, ptr %5, align 4
  br label %36

31:                                               ; preds = %26
  %32 = load ptr, ptr %6, align 8, !tbaa !9
  %33 = load ptr, ptr %3, align 8, !tbaa !144
  %34 = getelementptr inbounds nuw %struct._is, ptr %33, i32 0, i32 70
  %35 = getelementptr inbounds nuw %struct._Py_interp_cached_objects, ptr %34, i32 0, i32 5
  store ptr %32, ptr %35, align 8, !tbaa !38
  store i32 0, ptr %5, align 4
  br label %36

36:                                               ; preds = %31, %30
  call void @llvm.lifetime.end.p0(i64 8, ptr %6) #6
  %37 = load i32, ptr %5, align 4
  switch i32 %37, label %112 [
    i32 0, label %38
    i32 1, label %110
  ]

38:                                               ; preds = %36
  br label %39

39:                                               ; preds = %38
  br label %40

40:                                               ; preds = %39
  call void @llvm.lifetime.start.p0(i64 8, ptr %7) #6
  %41 = call ptr @PyType_FromSpec(ptr noundef @typevartuple_spec)
  store ptr %41, ptr %7, align 8, !tbaa !9
  %42 = load ptr, ptr %7, align 8, !tbaa !9
  %43 = icmp eq ptr %42, null
  br i1 %43, label %44, label %45

44:                                               ; preds = %40
  store i32 -1, ptr %2, align 4
  store i32 1, ptr %5, align 4
  br label %50

45:                                               ; preds = %40
  %46 = load ptr, ptr %7, align 8, !tbaa !9
  %47 = load ptr, ptr %3, align 8, !tbaa !144
  %48 = getelementptr inbounds nuw %struct._is, ptr %47, i32 0, i32 70
  %49 = getelementptr inbounds nuw %struct._Py_interp_cached_objects, ptr %48, i32 0, i32 6
  store ptr %46, ptr %49, align 8, !tbaa !137
  store i32 0, ptr %5, align 4
  br label %50

50:                                               ; preds = %45, %44
  call void @llvm.lifetime.end.p0(i64 8, ptr %7) #6
  %51 = load i32, ptr %5, align 4
  switch i32 %51, label %112 [
    i32 0, label %52
    i32 1, label %110
  ]

52:                                               ; preds = %50
  br label %53

53:                                               ; preds = %52
  br label %54

54:                                               ; preds = %53
  call void @llvm.lifetime.start.p0(i64 8, ptr %8) #6
  %55 = call ptr @PyType_FromSpec(ptr noundef @paramspec_spec)
  store ptr %55, ptr %8, align 8, !tbaa !9
  %56 = load ptr, ptr %8, align 8, !tbaa !9
  %57 = icmp eq ptr %56, null
  br i1 %57, label %58, label %59

58:                                               ; preds = %54
  store i32 -1, ptr %2, align 4
  store i32 1, ptr %5, align 4
  br label %64

59:                                               ; preds = %54
  %60 = load ptr, ptr %8, align 8, !tbaa !9
  %61 = load ptr, ptr %3, align 8, !tbaa !144
  %62 = getelementptr inbounds nuw %struct._is, ptr %61, i32 0, i32 70
  %63 = getelementptr inbounds nuw %struct._Py_interp_cached_objects, ptr %62, i32 0, i32 7
  store ptr %60, ptr %63, align 8, !tbaa !128
  store i32 0, ptr %5, align 4
  br label %64

64:                                               ; preds = %59, %58
  call void @llvm.lifetime.end.p0(i64 8, ptr %8) #6
  %65 = load i32, ptr %5, align 4
  switch i32 %65, label %112 [
    i32 0, label %66
    i32 1, label %110
  ]

66:                                               ; preds = %64
  br label %67

67:                                               ; preds = %66
  br label %68

68:                                               ; preds = %67
  call void @llvm.lifetime.start.p0(i64 8, ptr %9) #6
  %69 = call ptr @PyType_FromSpec(ptr noundef @paramspecargs_spec)
  store ptr %69, ptr %9, align 8, !tbaa !9
  %70 = load ptr, ptr %9, align 8, !tbaa !9
  %71 = icmp eq ptr %70, null
  br i1 %71, label %72, label %73

72:                                               ; preds = %68
  store i32 -1, ptr %2, align 4
  store i32 1, ptr %5, align 4
  br label %78

73:                                               ; preds = %68
  %74 = load ptr, ptr %9, align 8, !tbaa !9
  %75 = load ptr, ptr %3, align 8, !tbaa !144
  %76 = getelementptr inbounds nuw %struct._is, ptr %75, i32 0, i32 70
  %77 = getelementptr inbounds nuw %struct._Py_interp_cached_objects, ptr %76, i32 0, i32 8
  store ptr %74, ptr %77, align 8, !tbaa !150
  store i32 0, ptr %5, align 4
  br label %78

78:                                               ; preds = %73, %72
  call void @llvm.lifetime.end.p0(i64 8, ptr %9) #6
  %79 = load i32, ptr %5, align 4
  switch i32 %79, label %112 [
    i32 0, label %80
    i32 1, label %110
  ]

80:                                               ; preds = %78
  br label %81

81:                                               ; preds = %80
  br label %82

82:                                               ; preds = %81
  call void @llvm.lifetime.start.p0(i64 8, ptr %10) #6
  %83 = call ptr @PyType_FromSpec(ptr noundef @paramspeckwargs_spec)
  store ptr %83, ptr %10, align 8, !tbaa !9
  %84 = load ptr, ptr %10, align 8, !tbaa !9
  %85 = icmp eq ptr %84, null
  br i1 %85, label %86, label %87

86:                                               ; preds = %82
  store i32 -1, ptr %2, align 4
  store i32 1, ptr %5, align 4
  br label %92

87:                                               ; preds = %82
  %88 = load ptr, ptr %10, align 8, !tbaa !9
  %89 = load ptr, ptr %3, align 8, !tbaa !144
  %90 = getelementptr inbounds nuw %struct._is, ptr %89, i32 0, i32 70
  %91 = getelementptr inbounds nuw %struct._Py_interp_cached_objects, ptr %90, i32 0, i32 9
  store ptr %88, ptr %91, align 8, !tbaa !151
  store i32 0, ptr %5, align 4
  br label %92

92:                                               ; preds = %87, %86
  call void @llvm.lifetime.end.p0(i64 8, ptr %10) #6
  %93 = load i32, ptr %5, align 4
  switch i32 %93, label %112 [
    i32 0, label %94
    i32 1, label %110
  ]

94:                                               ; preds = %92
  br label %95

95:                                               ; preds = %94
  br label %96

96:                                               ; preds = %95
  call void @llvm.lifetime.start.p0(i64 8, ptr %11) #6
  %97 = call ptr @PyType_FromSpec(ptr noundef @constevaluator_spec)
  store ptr %97, ptr %11, align 8, !tbaa !9
  %98 = load ptr, ptr %11, align 8, !tbaa !9
  %99 = icmp eq ptr %98, null
  br i1 %99, label %100, label %101

100:                                              ; preds = %96
  store i32 -1, ptr %2, align 4
  store i32 1, ptr %5, align 4
  br label %106

101:                                              ; preds = %96
  %102 = load ptr, ptr %11, align 8, !tbaa !9
  %103 = load ptr, ptr %3, align 8, !tbaa !144
  %104 = getelementptr inbounds nuw %struct._is, ptr %103, i32 0, i32 70
  %105 = getelementptr inbounds nuw %struct._Py_interp_cached_objects, ptr %104, i32 0, i32 10
  store ptr %102, ptr %105, align 8, !tbaa !152
  store i32 0, ptr %5, align 4
  br label %106

106:                                              ; preds = %101, %100
  call void @llvm.lifetime.end.p0(i64 8, ptr %11) #6
  %107 = load i32, ptr %5, align 4
  switch i32 %107, label %112 [
    i32 0, label %108
    i32 1, label %110
  ]

108:                                              ; preds = %106
  br label %109

109:                                              ; preds = %108
  store i32 0, ptr %2, align 4
  br label %110

110:                                              ; preds = %109, %106, %92, %78, %64, %50, %36, %22
  %111 = load i32, ptr %2, align 4
  ret i32 %111

112:                                              ; preds = %106, %92, %78, %64, %50, %36, %22
  unreachable
}