; Function Attrs: nounwind uwtable
define hidden range(i32 -1, 1) i32 @_Py_initialize_generic(ptr noundef writeonly captures(none) %0) local_unnamed_addr #0 {
  %2 = tail call ptr @PyType_FromSpec(ptr noundef nonnull @generic_spec) #8
  %3 = icmp eq ptr %2, null
  br i1 %3, label %30, label %4

4:                                                ; preds = %1
  %5 = getelementptr inbounds nuw i8, ptr %0, i64 224496
  store ptr %2, ptr %5, align 8, !tbaa !144
  %6 = tail call ptr @PyType_FromSpec(ptr noundef nonnull @typevar_spec) #8
  %7 = icmp eq ptr %6, null
  br i1 %7, label %30, label %8

8:                                                ; preds = %4
  %9 = getelementptr inbounds nuw i8, ptr %0, i64 224504
  store ptr %6, ptr %9, align 8, !tbaa !117
  %10 = tail call ptr @PyType_FromSpec(ptr noundef nonnull @typevartuple_spec) #8
  %11 = icmp eq ptr %10, null
  br i1 %11, label %30, label %12

12:                                               ; preds = %8
  %13 = getelementptr inbounds nuw i8, ptr %0, i64 224512
  store ptr %10, ptr %13, align 8, !tbaa !40
  %14 = tail call ptr @PyType_FromSpec(ptr noundef nonnull @paramspec_spec) #8
  %15 = icmp eq ptr %14, null
  br i1 %15, label %30, label %16

16:                                               ; preds = %12
  %17 = getelementptr inbounds nuw i8, ptr %0, i64 224520
  store ptr %14, ptr %17, align 8, !tbaa !125
  %18 = tail call ptr @PyType_FromSpec(ptr noundef nonnull @paramspecargs_spec) #8
  %19 = icmp eq ptr %18, null
  br i1 %19, label %30, label %20

20:                                               ; preds = %16
  %21 = getelementptr inbounds nuw i8, ptr %0, i64 224528
  store ptr %18, ptr %21, align 8, !tbaa !147
  %22 = tail call ptr @PyType_FromSpec(ptr noundef nonnull @paramspeckwargs_spec) #8
  %23 = icmp eq ptr %22, null
  br i1 %23, label %30, label %24

24:                                               ; preds = %20
  %25 = getelementptr inbounds nuw i8, ptr %0, i64 224536
  store ptr %22, ptr %25, align 8, !tbaa !148
  %26 = tail call ptr @PyType_FromSpec(ptr noundef nonnull @constevaluator_spec) #8
  %.not = icmp eq ptr %26, null
  br i1 %.not, label %29, label %27

27:                                               ; preds = %24
  %28 = getelementptr inbounds nuw i8, ptr %0, i64 224544
  store ptr %26, ptr %28, align 8, !tbaa !149
  br label %29

29:                                               ; preds = %24, %27
  %spec.select = sext i1 %.not to i32
  br label %30

30:                                               ; preds = %20, %16, %12, %8, %4, %1, %29
  %.1 = phi i32 [ %spec.select, %29 ], [ -1, %1 ], [ -1, %4 ], [ -1, %8 ], [ -1, %12 ], [ -1, %16 ], [ -1, %20 ]
  ret i32 %.1
}